; ModuleID = '30/84.c'
source_filename = "30/84.c"
target datalayout = "e-m:e-p270:32:32-p271:32:32-p272:64:64-i64:64-f80:128-n8:16:32:64-S128"
target triple = "x86_64-pc-linux-gnu"

@.str = private unnamed_addr constant [3 x i8] c"%d\00", align 1

; Function Attrs: noinline nounwind uwtable
define dso_local void @main() #0 {
  %1 = alloca i32, align 4
  %2 = alloca i32, align 4
  %3 = alloca i32, align 4
  %4 = alloca i32, align 4
  %5 = alloca i32, align 4
  %6 = alloca i32, align 4
  %7 = alloca i32, align 4
  %8 = alloca i32, align 4
  store i32 0, i32* %6, align 4
  store i32 0, i32* %7, align 4
  %9 = call i32 (i8*, ...) @__isoc99_scanf(i8* getelementptr inbounds ([3 x i8], [3 x i8]* @.str, i64 0, i64 0), i32* %1)
  store i32 1, i32* %2, align 4
  br label %10

10:                                               ; preds = %55, %0
  %11 = load i32, i32* %2, align 4
  %12 = load i32, i32* %1, align 4
  %13 = icmp sle i32 %11, %12
  br i1 %13, label %14, label %58

14:                                               ; preds = %10
  %15 = load i32, i32* %2, align 4
  %16 = icmp slt i32 %15, 10
  br i1 %16, label %17, label %27

17:                                               ; preds = %14
  %18 = load i32, i32* %2, align 4
  %19 = icmp ne i32 %18, 7
  br i1 %19, label %20, label %27

20:                                               ; preds = %17
  %21 = load i32, i32* %2, align 4
  %22 = load i32, i32* %2, align 4
  %23 = mul nsw i32 %21, %22
  store i32 %23, i32* %4, align 4
  %24 = load i32, i32* %6, align 4
  %25 = load i32, i32* %4, align 4
  %26 = add nsw i32 %24, %25
  store i32 %26, i32* %6, align 4
  br label %54

27:                                               ; preds = %17, %14
  %28 = load i32, i32* %2, align 4
  %29 = icmp sgt i32 %28, 9
  br i1 %29, label %30, label %53

30:                                               ; preds = %27
  %31 = load i32, i32* %2, align 4
  %32 = sdiv i32 %31, 10
  store i32 %32, i32* %3, align 4
  %33 = load i32, i32* %2, align 4
  %34 = srem i32 %33, 7
  %35 = icmp ne i32 %34, 0
  br i1 %35, label %36, label %52

36:                                               ; preds = %30
  %37 = load i32, i32* %3, align 4
  %38 = icmp ne i32 %37, 7
  br i1 %38, label %39, label %52

39:                                               ; preds = %36
  %40 = load i32, i32* %2, align 4
  %41 = load i32, i32* %3, align 4
  %42 = mul nsw i32 %41, 10
  %43 = sub nsw i32 %40, %42
  %44 = icmp ne i32 %43, 7
  br i1 %44, label %45, label %52

45:                                               ; preds = %39
  %46 = load i32, i32* %2, align 4
  %47 = load i32, i32* %2, align 4
  %48 = mul nsw i32 %46, %47
  store i32 %48, i32* %5, align 4
  %49 = load i32, i32* %7, align 4
  %50 = load i32, i32* %5, align 4
  %51 = add nsw i32 %49, %50
  store i32 %51, i32* %7, align 4
  br label %52

52:                                               ; preds = %45, %39, %36, %30
  br label %53

53:                                               ; preds = %52, %27
  br label %54

54:                                               ; preds = %53, %20
  br label %55

55:                                               ; preds = %54
  %56 = load i32, i32* %2, align 4
  %57 = add nsw i32 %56, 1
  store i32 %57, i32* %2, align 4
  br label %10

58:                                               ; preds = %10
  %59 = load i32, i32* %6, align 4
  %60 = load i32, i32* %7, align 4
  %61 = add nsw i32 %59, %60
  store i32 %61, i32* %8, align 4
  %62 = load i32, i32* %8, align 4
  %63 = call i32 (i8*, ...) @printf(i8* getelementptr inbounds ([3 x i8], [3 x i8]* @.str, i64 0, i64 0), i32 %62)
  ret void
}

declare dso_local i32 @__isoc99_scanf(i8*, ...) #1

declare dso_local i32 @printf(i8*, ...) #1


!llvm.module.flags = !{!0}
!llvm.ident = !{!1}

!0 = !{i32 1, !"wchar_size", i32 4}
!1 = !{!"clang version 10.0.0-4ubuntu1 "}
